; ModuleID = '35/1834.c'
source_filename = "35/1834.c"
target datalayout = "e-m:e-p270:32:32-p271:32:32-p272:64:64-i64:64-f80:128-n8:16:32:64-S128"
target triple = "x86_64-pc-linux-gnu"

@.str = private unnamed_addr constant [6 x i8] c"%d,%d\00", align 1
@.str.1 = private unnamed_addr constant [3 x i8] c"%d\00", align 1
@.str.2 = private unnamed_addr constant [6 x i8] c"%d+%d\00", align 1
@.str.3 = private unnamed_addr constant [3 x i8] c"No\00", align 1

; Function Attrs: noinline nounwind uwtable
define dso_local i32 @main() #0 {
  %1 = alloca i32, align 4
  %2 = alloca i32, align 4
  %3 = alloca i32, align 4
  %4 = alloca i32, align 4
  %5 = alloca i32, align 4
  %6 = alloca i32, align 4
  %7 = alloca i32, align 4
  %8 = alloca i32, align 4
  %9 = alloca i32, align 4
  %10 = alloca i32, align 4
  %11 = alloca i32, align 4
  %12 = alloca [8 x [8 x i32]], align 16
  %13 = alloca [8 x i32], align 16
  store i32 0, i32* %1, align 4
  store i32 1, i32* %10, align 4
  store i32 1, i32* %11, align 4
  %14 = call i32 (i8*, ...) @__isoc99_scanf(i8* getelementptr inbounds ([6 x i8], [6 x i8]* @.str, i64 0, i64 0), i32* %2, i32* %3)
  store i32 1, i32* %4, align 4
  br label %15

15:                                               ; preds = %36, %0
  %16 = load i32, i32* %4, align 4
  %17 = load i32, i32* %2, align 4
  %18 = icmp sle i32 %16, %17
  br i1 %18, label %19, label %39

19:                                               ; preds = %15
  store i32 1, i32* %5, align 4
  br label %20

20:                                               ; preds = %32, %19
  %21 = load i32, i32* %5, align 4
  %22 = load i32, i32* %3, align 4
  %23 = icmp sle i32 %21, %22
  br i1 %23, label %24, label %35

24:                                               ; preds = %20
  %25 = load i32, i32* %4, align 4
  %26 = sext i32 %25 to i64
  %27 = getelementptr inbounds [8 x [8 x i32]], [8 x [8 x i32]]* %12, i64 0, i64 %26
  %28 = load i32, i32* %5, align 4
  %29 = sext i32 %28 to i64
  %30 = getelementptr inbounds [8 x i32], [8 x i32]* %27, i64 0, i64 %29
  %31 = call i32 (i8*, ...) @__isoc99_scanf(i8* getelementptr inbounds ([3 x i8], [3 x i8]* @.str.1, i64 0, i64 0), i32* %30)
  br label %32

32:                                               ; preds = %24
  %33 = load i32, i32* %5, align 4
  %34 = add nsw i32 %33, 1
  store i32 %34, i32* %5, align 4
  br label %20

35:                                               ; preds = %20
  br label %36

36:                                               ; preds = %35
  %37 = load i32, i32* %4, align 4
  %38 = add nsw i32 %37, 1
  store i32 %38, i32* %4, align 4
  br label %15

39:                                               ; preds = %15
  store i32 1, i32* %6, align 4
  br label %40

40:                                               ; preds = %83, %39
  %41 = load i32, i32* %6, align 4
  %42 = load i32, i32* %2, align 4
  %43 = icmp sle i32 %41, %42
  br i1 %43, label %44, label %86

44:                                               ; preds = %40
  %45 = load i32, i32* %6, align 4
  %46 = sext i32 %45 to i64
  %47 = getelementptr inbounds [8 x i32], [8 x i32]* %13, i64 0, i64 %46
  store i32 1, i32* %47, align 4
  store i32 1, i32* %7, align 4
  br label %48

48:                                               ; preds = %79, %44
  %49 = load i32, i32* %7, align 4
  %50 = load i32, i32* %3, align 4
  %51 = icmp slt i32 %49, %50
  br i1 %51, label %52, label %82

52:                                               ; preds = %48
  %53 = load i32, i32* %6, align 4
  %54 = sext i32 %53 to i64
  %55 = getelementptr inbounds [8 x [8 x i32]], [8 x [8 x i32]]* %12, i64 0, i64 %54
  %56 = load i32, i32* %6, align 4
  %57 = sext i32 %56 to i64
  %58 = getelementptr inbounds [8 x i32], [8 x i32]* %13, i64 0, i64 %57
  %59 = load i32, i32* %58, align 4
  %60 = sext i32 %59 to i64
  %61 = getelementptr inbounds [8 x i32], [8 x i32]* %55, i64 0, i64 %60
  %62 = load i32, i32* %61, align 4
  %63 = load i32, i32* %6, align 4
  %64 = sext i32 %63 to i64
  %65 = getelementptr inbounds [8 x [8 x i32]], [8 x [8 x i32]]* %12, i64 0, i64 %64
  %66 = load i32, i32* %7, align 4
  %67 = add nsw i32 %66, 1
  %68 = sext i32 %67 to i64
  %69 = getelementptr inbounds [8 x i32], [8 x i32]* %65, i64 0, i64 %68
  %70 = load i32, i32* %69, align 4
  %71 = icmp slt i32 %62, %70
  br i1 %71, label %72, label %78

72:                                               ; preds = %52
  %73 = load i32, i32* %7, align 4
  %74 = add nsw i32 %73, 1
  %75 = load i32, i32* %6, align 4
  %76 = sext i32 %75 to i64
  %77 = getelementptr inbounds [8 x i32], [8 x i32]* %13, i64 0, i64 %76
  store i32 %74, i32* %77, align 4
  br label %78

78:                                               ; preds = %72, %52
  br label %79

79:                                               ; preds = %78
  %80 = load i32, i32* %7, align 4
  %81 = add nsw i32 %80, 1
  store i32 %81, i32* %7, align 4
  br label %48

82:                                               ; preds = %48
  br label %83

83:                                               ; preds = %82
  %84 = load i32, i32* %6, align 4
  %85 = add nsw i32 %84, 1
  store i32 %85, i32* %6, align 4
  br label %40

86:                                               ; preds = %40
  store i32 1, i32* %8, align 4
  br label %87

87:                                               ; preds = %136, %86
  %88 = load i32, i32* %8, align 4
  %89 = load i32, i32* %2, align 4
  %90 = icmp sle i32 %88, %89
  br i1 %90, label %91, label %139

91:                                               ; preds = %87
  store i32 1, i32* %9, align 4
  br label %92

92:                                               ; preds = %120, %91
  %93 = load i32, i32* %9, align 4
  %94 = load i32, i32* %2, align 4
  %95 = icmp sle i32 %93, %94
  br i1 %95, label %96, label %123

96:                                               ; preds = %92
  %97 = load i32, i32* %8, align 4
  %98 = sext i32 %97 to i64
  %99 = getelementptr inbounds [8 x [8 x i32]], [8 x [8 x i32]]* %12, i64 0, i64 %98
  %100 = load i32, i32* %8, align 4
  %101 = sext i32 %100 to i64
  %102 = getelementptr inbounds [8 x i32], [8 x i32]* %13, i64 0, i64 %101
  %103 = load i32, i32* %102, align 4
  %104 = sext i32 %103 to i64
  %105 = getelementptr inbounds [8 x i32], [8 x i32]* %99, i64 0, i64 %104
  %106 = load i32, i32* %105, align 4
  %107 = load i32, i32* %9, align 4
  %108 = sext i32 %107 to i64
  %109 = getelementptr inbounds [8 x [8 x i32]], [8 x [8 x i32]]* %12, i64 0, i64 %108
  %110 = load i32, i32* %8, align 4
  %111 = sext i32 %110 to i64
  %112 = getelementptr inbounds [8 x i32], [8 x i32]* %13, i64 0, i64 %111
  %113 = load i32, i32* %112, align 4
  %114 = sext i32 %113 to i64
  %115 = getelementptr inbounds [8 x i32], [8 x i32]* %109, i64 0, i64 %114
  %116 = load i32, i32* %115, align 4
  %117 = icmp sgt i32 %106, %116
  br i1 %117, label %118, label %119

118:                                              ; preds = %96
  store i32 0, i32* %10, align 4
  br label %123

119:                                              ; preds = %96
  br label %120

120:                                              ; preds = %119
  %121 = load i32, i32* %9, align 4
  %122 = add nsw i32 %121, 1
  store i32 %122, i32* %9, align 4
  br label %92

123:                                              ; preds = %118, %92
  %124 = load i32, i32* %10, align 4
  %125 = icmp ne i32 %124, 0
  br i1 %125, label %126, label %135

126:                                              ; preds = %123
  %127 = load i32, i32* %8, align 4
  %128 = sub nsw i32 %127, 1
  %129 = load i32, i32* %8, align 4
  %130 = sext i32 %129 to i64
  %131 = getelementptr inbounds [8 x i32], [8 x i32]* %13, i64 0, i64 %130
  %132 = load i32, i32* %131, align 4
  %133 = sub nsw i32 %132, 1
  %134 = call i32 (i8*, ...) @printf(i8* getelementptr inbounds ([6 x i8], [6 x i8]* @.str.2, i64 0, i64 0), i32 %128, i32 %133)
  store i32 0, i32* %11, align 4
  br label %139

135:                                              ; preds = %123
  br label %136

136:                                              ; preds = %135
  %137 = load i32, i32* %8, align 4
  %138 = add nsw i32 %137, 1
  store i32 %138, i32* %8, align 4
  br label %87

139:                                              ; preds = %126, %87
  %140 = load i32, i32* %11, align 4
  %141 = icmp ne i32 %140, 0
  br i1 %141, label %142, label %144

142:                                              ; preds = %139
  %143 = call i32 (i8*, ...) @printf(i8* getelementptr inbounds ([3 x i8], [3 x i8]* @.str.3, i64 0, i64 0))
  br label %144

144:                                              ; preds = %142, %139
  ret i32 0
}

declare dso_local i32 @__isoc99_scanf(i8*, ...) #1

declare dso_local i32 @printf(i8*, ...) #1


!llvm.module.flags = !{!0}
!llvm.ident = !{!1}

!0 = !{i32 1, !"wchar_size", i32 4}
!1 = !{!"clang version 10.0.0-4ubuntu1 "}
